target datalayout = "e-m:e-p270:32:32-p271:32:32-p272:64:64-i64:64-i128:128-f80:128-n8:16:32:64-S128"
target triple = "x86_64-pc-linux-gnu"

%struct.HTable = type { i32, ptr }
%struct.Module_ = type { ptr, ptr, ptr, i16, i32, ptr, %struct.HTable, ptr, ptr, ptr, ptr, ptr, ptr, ptr, ptr, ptr }
%struct.Path_ = type { %union.SourceSpan, ptr, i32 }
%union.SourceSpan = type { i64 }
%struct.VHeader_ = type { i32, i32, [0 x i8] }

; Function Attrs: nounwind uwtable
define internal zeroext i1 @matches_subpath(ptr noundef %0, ptr noundef %1) #0 {
  %3 = alloca i1, align 1
  %4 = alloca ptr, align 8
  %5 = alloca ptr, align 8
  %6 = alloca i64, align 8
  store ptr %0, ptr %4, align 8
  store ptr %1, ptr %5, align 8
  %7 = load ptr, ptr %5, align 8
  %8 = getelementptr inbounds %struct.Path_, ptr %7, i32 0, i32 1
  %9 = load ptr, ptr %8, align 8
  %10 = load ptr, ptr %4, align 8
  %11 = getelementptr inbounds %struct.Path_, ptr %10, i32 0, i32 1
  %12 = load ptr, ptr %11, align 8
  %13 = icmp eq ptr %9, %12
  br i1 %13, label %14, label %15

14:                                               ; preds = %2
  store i1 true, ptr %3, align 1
  br label %64

15:                                               ; preds = %2
  %16 = load ptr, ptr %4, align 8
  %17 = getelementptr inbounds %struct.Path_, ptr %16, i32 0, i32 2
  %18 = load i32, ptr %17, align 8
  %19 = zext i32 %18 to i64
  %20 = load ptr, ptr %5, align 8
  %21 = getelementptr inbounds %struct.Path_, ptr %20, i32 0, i32 2
  %22 = load i32, ptr %21, align 8
  %23 = zext i32 %22 to i64
  %24 = sub nsw i64 %19, %23
  store i64 %24, ptr %6, align 8
  %25 = load i64, ptr %6, align 8
  %26 = icmp slt i64 %25, 3
  br i1 %26, label %27, label %28

27:                                               ; preds = %15
  store i1 false, ptr %3, align 1
  br label %64

28:                                               ; preds = %15
  %29 = load ptr, ptr %4, align 8
  %30 = getelementptr inbounds %struct.Path_, ptr %29, i32 0, i32 1
  %31 = load ptr, ptr %30, align 8
  %32 = load i64, ptr %6, align 8
  %33 = sub nsw i64 %32, 1
  %34 = getelementptr inbounds i8, ptr %31, i64 %33
  %35 = load i8, ptr %34, align 1
  %36 = sext i8 %35 to i32
  %37 = icmp ne i32 %36, 58
  br i1 %37, label %48, label %38

38:                                               ; preds = %28
  %39 = load ptr, ptr %4, align 8
  %40 = getelementptr inbounds %struct.Path_, ptr %39, i32 0, i32 1
  %41 = load ptr, ptr %40, align 8
  %42 = load i64, ptr %6, align 8
  %43 = sub nsw i64 %42, 2
  %44 = getelementptr inbounds i8, ptr %41, i64 %43
  %45 = load i8, ptr %44, align 1
  %46 = sext i8 %45 to i32
  %47 = icmp ne i32 %46, 58
  br i1 %47, label %48, label %49

48:                                               ; preds = %38, %28
  store i1 false, ptr %3, align 1
  br label %64

49:                                               ; preds = %38
  %50 = load ptr, ptr %4, align 8
  %51 = getelementptr inbounds %struct.Path_, ptr %50, i32 0, i32 1
  %52 = load ptr, ptr %51, align 8
  %53 = load i64, ptr %6, align 8
  %54 = getelementptr inbounds i8, ptr %52, i64 %53
  %55 = load ptr, ptr %5, align 8
  %56 = getelementptr inbounds %struct.Path_, ptr %55, i32 0, i32 1
  %57 = load ptr, ptr %56, align 8
  %58 = load ptr, ptr %5, align 8
  %59 = getelementptr inbounds %struct.Path_, ptr %58, i32 0, i32 2
  %60 = load i32, ptr %59, align 8
  %61 = zext i32 %60 to i64
  %62 = call i32 @memcmp(ptr noundef %54, ptr noundef %57, i64 noundef %61) #8
  %63 = icmp eq i32 0, %62
  store i1 %63, ptr %3, align 1
  br label %64

64:                                               ; preds = %49, %48, %27, %14
  %65 = load i1, ptr %3, align 1
  ret i1 %65
}

; Function Attrs: nounwind uwtable
define internal ptr @sema_find_decl_in_module(ptr noundef %0, ptr noundef %1, ptr noundef %2, ptr noundef %3) #0 {
  %5 = alloca ptr, align 8
  %6 = alloca ptr, align 8
  %7 = alloca ptr, align 8
  %8 = alloca ptr, align 8
  %9 = alloca ptr, align 8
  store ptr %0, ptr %6, align 8
  store ptr %1, ptr %7, align 8
  store ptr %2, ptr %8, align 8
  store ptr %3, ptr %9, align 8
  %10 = load ptr, ptr %7, align 8
  %11 = icmp ne ptr %10, null
  br i1 %11, label %16, label %12

12:                                               ; preds = %4
  %13 = load ptr, ptr %6, align 8
  %14 = load ptr, ptr %8, align 8
  %15 = call ptr @module_find_symbol(ptr noundef %13, ptr noundef %14)
  store ptr %15, ptr %5, align 8
  br label %39

16:                                               ; preds = %4
  %17 = load ptr, ptr %7, align 8
  %18 = getelementptr inbounds %struct.Path_, ptr %17, i32 0, i32 2
  %19 = load i32, ptr %18, align 8
  %20 = load ptr, ptr %6, align 8
  %21 = getelementptr inbounds %struct.Module_, ptr %20, i32 0, i32 0
  %22 = load ptr, ptr %21, align 8
  %23 = getelementptr inbounds %struct.Path_, ptr %22, i32 0, i32 2
  %24 = load i32, ptr %23, align 8
  %25 = icmp ugt i32 %19, %24
  br i1 %25, label %26, label %27

26:                                               ; preds = %16
  store ptr null, ptr %5, align 8
  br label %39

27:                                               ; preds = %16
  %28 = load ptr, ptr %6, align 8
  %29 = getelementptr inbounds %struct.Module_, ptr %28, i32 0, i32 0
  %30 = load ptr, ptr %29, align 8
  %31 = load ptr, ptr %7, align 8
  %32 = call zeroext i1 @matches_subpath(ptr noundef %30, ptr noundef %31)
  br i1 %32, label %34, label %33

33:                                               ; preds = %27
  store ptr null, ptr %5, align 8
  br label %39

34:                                               ; preds = %27
  %35 = load ptr, ptr %9, align 8
  store i8 1, ptr %35, align 1
  %36 = load ptr, ptr %6, align 8
  %37 = load ptr, ptr %8, align 8
  %38 = call ptr @module_find_symbol(ptr noundef %36, ptr noundef %37)
  store ptr %38, ptr %5, align 8
  br label %39

39:                                               ; preds = %34, %33, %26, %12
  %40 = load ptr, ptr %5, align 8
  ret ptr %40
}

; Function Attrs: nounwind uwtable
define dso_local ptr @sema_find_decl_in_modules(ptr noundef %0, ptr noundef %1, ptr noundef %2) #0 {
  %4 = alloca i32, align 4
  %5 = alloca ptr, align 8
  %6 = alloca ptr, align 8
  %7 = alloca ptr, align 8
  %8 = alloca ptr, align 8
  %9 = alloca ptr, align 8
  %10 = alloca ptr, align 8
  %11 = alloca i8, align 1
  %12 = alloca i32, align 4
  %13 = alloca i32, align 4
  %14 = alloca ptr, align 8
  %15 = alloca ptr, align 8
  store ptr %0, ptr %8, align 8
  store ptr %1, ptr %9, align 8
  store ptr %2, ptr %10, align 8
  store i8 0, ptr %11, align 1
  store i32 0, ptr %12, align 4
  %16 = load ptr, ptr %8, align 8
  store ptr %16, ptr %5, align 8
  %17 = load ptr, ptr %5, align 8
  %18 = icmp ne ptr %17, null
  br i1 %18, label %20, label %19

19:                                               ; preds = %3
  store i32 0, ptr %4, align 4
  br label %25

20:                                               ; preds = %3
  %21 = load ptr, ptr %5, align 8
  store ptr %21, ptr %6, align 8
  %22 = load ptr, ptr %6, align 8
  %23 = getelementptr inbounds %struct.VHeader_, ptr %22, i64 -1
  %24 = load i32, ptr %23, align 4
  store i32 %24, ptr %4, align 4
  br label %25

25:                                               ; preds = %20, %19
  %26 = load i32, ptr %4, align 4
  store i32 %26, ptr %13, align 4
  br label %27

27:                                               ; preds = %46, %25
  %28 = load i32, ptr %12, align 4
  %29 = load i32, ptr %13, align 4
  %30 = icmp ult i32 %28, %29
  br i1 %30, label %31, label %49

31:                                               ; preds = %27
  %32 = load ptr, ptr %8, align 8
  %33 = load i32, ptr %12, align 4
  %34 = zext i32 %33 to i64
  %35 = getelementptr inbounds ptr, ptr %32, i64 %34
  %36 = load ptr, ptr %35, align 8
  store ptr %36, ptr %14, align 8
  %37 = load ptr, ptr %14, align 8
  %38 = load ptr, ptr %9, align 8
  %39 = load ptr, ptr %10, align 8
  %40 = call ptr @sema_find_decl_in_module(ptr noundef %37, ptr noundef %38, ptr noundef %39, ptr noundef %11)
  store ptr %40, ptr %15, align 8
  %41 = load ptr, ptr %15, align 8
  %42 = icmp ne ptr %41, null
  br i1 %42, label %43, label %45

43:                                               ; preds = %31
  %44 = load ptr, ptr %15, align 8
  store ptr %44, ptr %7, align 8
  br label %50

45:                                               ; preds = %31
  br label %46

46:                                               ; preds = %45
  %47 = load i32, ptr %12, align 4
  %48 = add i32 %47, 1
  store i32 %48, ptr %12, align 4
  br label %27, !llvm.loop !16

49:                                               ; preds = %27
  store ptr null, ptr %7, align 8
  br label %50

50:                                               ; preds = %49, %43
  %51 = load ptr, ptr %7, align 8
  ret ptr %51
}