; Function Attrs: nounwind uwtable
define dso_local ptr @sema_find_decl_in_modules(ptr noundef readonly %0, ptr noundef readonly %1, ptr noundef %2) local_unnamed_addr #2 {
  %.not = icmp eq ptr %0, null
  br i1 %.not, label %._crit_edge, label %4

4:                                                ; preds = %3
  %5 = getelementptr inbounds i8, ptr %0, i64 -8
  %6 = load i32, ptr %5, align 4
  %.not25 = icmp eq i32 %6, 0
  br i1 %.not25, label %._crit_edge, label %.lr.ph

.lr.ph:                                           ; preds = %4
  %.not.i = icmp eq ptr %1, null
  %7 = getelementptr inbounds i8, ptr %1, i64 16
  %8 = getelementptr inbounds i8, ptr %1, i64 8
  %wide.trip.count32 = zext i32 %6 to i64
  br i1 %.not.i, label %sema_find_decl_in_module.exit.us, label %.lr.ph.split

sema_find_decl_in_module.exit.us:                 ; preds = %.lr.ph, %sema_find_decl_in_module.exit.thread.us
  %indvars.iv29 = phi i64 [ %indvars.iv.next30, %sema_find_decl_in_module.exit.thread.us ], [ 0, %.lr.ph ]
  %9 = getelementptr inbounds ptr, ptr %0, i64 %indvars.iv29
  %10 = load ptr, ptr %9, align 8
  %11 = tail call ptr @module_find_symbol(ptr noundef %10, ptr noundef %2) #10
  %.not19.us = icmp eq ptr %11, null
  br i1 %.not19.us, label %sema_find_decl_in_module.exit.thread.us, label %._crit_edge

sema_find_decl_in_module.exit.thread.us:          ; preds = %sema_find_decl_in_module.exit.us
  %indvars.iv.next30 = add nuw nsw i64 %indvars.iv29, 1
  %exitcond33.not = icmp eq i64 %indvars.iv.next30, %wide.trip.count32
  br i1 %exitcond33.not, label %._crit_edge, label %sema_find_decl_in_module.exit.us, !llvm.loop !16

.lr.ph.split:                                     ; preds = %.lr.ph, %sema_find_decl_in_module.exit.thread
  %indvars.iv = phi i64 [ %indvars.iv.next, %sema_find_decl_in_module.exit.thread ], [ 0, %.lr.ph ]
  %12 = getelementptr inbounds ptr, ptr %0, i64 %indvars.iv
  %13 = load ptr, ptr %12, align 8
  %14 = load i32, ptr %7, align 8
  %15 = load ptr, ptr %13, align 8
  %16 = getelementptr inbounds i8, ptr %15, i64 16
  %17 = load i32, ptr %16, align 8
  %18 = icmp ugt i32 %14, %17
  br i1 %18, label %sema_find_decl_in_module.exit.thread, label %19

19:                                               ; preds = %.lr.ph.split
  %20 = load ptr, ptr %8, align 8
  %21 = getelementptr inbounds i8, ptr %15, i64 8
  %22 = load ptr, ptr %21, align 8
  %23 = icmp eq ptr %20, %22
  br i1 %23, label %matches_subpath.exit.thread13.i, label %24

24:                                               ; preds = %19
  %25 = zext i32 %17 to i64
  %26 = zext i32 %14 to i64
  %27 = sub nsw i64 %25, %26
  %28 = icmp slt i64 %27, 3
  br i1 %28, label %sema_find_decl_in_module.exit.thread, label %29

29:                                               ; preds = %24
  %30 = getelementptr i8, ptr %22, i64 %27
  %31 = getelementptr i8, ptr %30, i64 -1
  %32 = load i8, ptr %31, align 1
  %.not.i.i = icmp eq i8 %32, 58
  br i1 %.not.i.i, label %33, label %sema_find_decl_in_module.exit.thread

33:                                               ; preds = %29
  %34 = getelementptr i8, ptr %30, i64 -2
  %35 = load i8, ptr %34, align 1
  %.not16.i.i = icmp eq i8 %35, 58
  br i1 %.not16.i.i, label %matches_subpath.exit.i, label %sema_find_decl_in_module.exit.thread

matches_subpath.exit.i:                           ; preds = %33
  %bcmp.i.i = tail call i32 @bcmp(ptr %30, ptr %20, i64 %26)
  %36 = icmp eq i32 %bcmp.i.i, 0
  br i1 %36, label %matches_subpath.exit.thread13.i, label %sema_find_decl_in_module.exit.thread

matches_subpath.exit.thread13.i:                  ; preds = %matches_subpath.exit.i, %19
  %37 = tail call ptr @module_find_symbol(ptr noundef nonnull %13, ptr noundef %2) #10
  %.not19 = icmp eq ptr %37, null
  br i1 %.not19, label %sema_find_decl_in_module.exit.thread, label %._crit_edge

sema_find_decl_in_module.exit.thread:             ; preds = %29, %33, %24, %matches_subpath.exit.i, %.lr.ph.split, %matches_subpath.exit.thread13.i
  %indvars.iv.next = add nuw nsw i64 %indvars.iv, 1
  %exitcond.not = icmp eq i64 %indvars.iv.next, %wide.trip.count32
  br i1 %exitcond.not, label %._crit_edge, label %.lr.ph.split, !llvm.loop !16

._crit_edge:                                      ; preds = %matches_subpath.exit.thread13.i, %sema_find_decl_in_module.exit.thread, %sema_find_decl_in_module.exit.us, %sema_find_decl_in_module.exit.thread.us, %3, %4
  %.015 = phi ptr [ null, %4 ], [ null, %3 ], [ null, %sema_find_decl_in_module.exit.thread.us ], [ %11, %sema_find_decl_in_module.exit.us ], [ null, %sema_find_decl_in_module.exit.thread ], [ %37, %matches_subpath.exit.thread13.i ]
  ret ptr %.015
}